; Function Attrs: mustprogress uwtable
define void @_ZN7rocksdb24UnpredictableUniqueIdGen23GenerateNextWithEntropyEPmS1_m(ptr noundef nonnull align 64 captures(none) dereferenceable(40) %this, ptr noundef writeonly captures(none) %upper, ptr noundef writeonly captures(none) %lower, i64 noundef %extra_entropy) local_unnamed_addr #0 align 2 {
entry:
  %a = alloca i64, align 8
  %b = alloca i64, align 8
  %counter_ = getelementptr inbounds nuw i8, ptr %this, i64 32
  %0 = atomicrmw add ptr %counter_, i64 1 monotonic, align 8
  store i64 %0, ptr %a, align 8
  store i64 %extra_entropy, ptr %b, align 8
  call void @_ZN7rocksdb17BijectiveHash2x64EmmPmS0_(i64 noundef %0, i64 noundef %extra_entropy, ptr noundef nonnull %a, ptr noundef nonnull %b)
  br label %for.body

for.body:                                         ; preds = %entry, %for.body
  %cmp = phi i1 [ true, %entry ], [ false, %for.body ]
  %i.017 = phi i64 [ 0, %entry ], [ 2, %for.body ]
  %arrayidx.i.i = getelementptr inbounds nuw [4 x %"struct.std::atomic"], ptr %this, i64 0, i64 %i.017
  %1 = load atomic i64, ptr %arrayidx.i.i monotonic, align 16
  %2 = load i64, ptr %a, align 8
  %xor = xor i64 %2, %1
  store i64 %xor, ptr %a, align 8
  %add = or disjoint i64 %i.017, 1
  %arrayidx.i.i15 = getelementptr inbounds nuw [4 x %"struct.std::atomic"], ptr %this, i64 0, i64 %add
  %3 = load atomic i64, ptr %arrayidx.i.i15 monotonic, align 8
  %4 = load i64, ptr %b, align 8
  %xor9 = xor i64 %4, %3
  store i64 %xor9, ptr %b, align 8
  call void @_ZN7rocksdb17BijectiveHash2x64EmmPmS0_(i64 noundef %xor, i64 noundef %xor9, ptr noundef nonnull %a, ptr noundef nonnull %b)
  br i1 %cmp, label %for.body, label %for.end, !llvm.loop !4

for.end:                                          ; preds = %for.body
  %5 = load i64, ptr %a, align 8
  store i64 %5, ptr %lower, align 8
  %6 = load i64, ptr %b, align 8
  store i64 %6, ptr %upper, align 8
  %and = and i64 %0, 3
  %arrayidx.i.i16 = getelementptr inbounds nuw [4 x %"struct.std::atomic"], ptr %this, i64 0, i64 %and
  %7 = atomicrmw add ptr %arrayidx.i.i16, i64 %5 monotonic, align 8
  ret void
}